target datalayout = "e-m:e-p270:32:32-p271:32:32-p272:64:64-i64:64-i128:128-f80:128-n8:16:32:64-S128"
target triple = "x86_64-pc-linux-gnu"

%struct._zend_ssa = type { %struct._zend_cfg, i32, i32, ptr, ptr, ptr, ptr }
%struct._zend_cfg = type { i32, i32, ptr, ptr, ptr, i32 }
%struct._zend_basic_block = type { ptr, i32, i32, i32, i32, i32, i32, i32, i32, i32, i32, i32, [2 x i32] }

; Function Attrs: nounwind uwtable
define hidden void @zend_ssa_remove_block_from_cfg(ptr noundef %0, i32 noundef %1) #0 {
  %3 = alloca ptr, align 8
  %4 = alloca i32, align 4
  %5 = alloca ptr, align 8
  %6 = alloca ptr, align 8
  %7 = alloca i32, align 4
  %8 = alloca i32, align 4
  %9 = alloca ptr, align 8
  store ptr %0, ptr %3, align 8, !tbaa !48
  store i32 %1, ptr %4, align 4, !tbaa !11
  call void @llvm.lifetime.start.p0(i64 8, ptr %5) #13
  %10 = load ptr, ptr %3, align 8, !tbaa !48
  %11 = getelementptr inbounds nuw %struct._zend_ssa, ptr %10, i32 0, i32 0
  %12 = getelementptr inbounds nuw %struct._zend_cfg, ptr %11, i32 0, i32 2
  %13 = load ptr, ptr %12, align 8, !tbaa !50
  %14 = load i32, ptr %4, align 4, !tbaa !11
  %15 = sext i32 %14 to i64
  %16 = getelementptr inbounds %struct._zend_basic_block, ptr %13, i64 %15
  store ptr %16, ptr %5, align 8, !tbaa !57
  call void @llvm.lifetime.start.p0(i64 8, ptr %6) #13
  call void @llvm.lifetime.start.p0(i64 4, ptr %7) #13
  call void @llvm.lifetime.start.p0(i64 4, ptr %8) #13
  store i32 0, ptr %8, align 4, !tbaa !11
  br label %17

17:                                               ; preds = %33, %2
  %18 = load i32, ptr %8, align 4, !tbaa !11
  %19 = load ptr, ptr %5, align 8, !tbaa !57
  %20 = getelementptr inbounds nuw %struct._zend_basic_block, ptr %19, i32 0, i32 4
  %21 = load i32, ptr %20, align 4, !tbaa !113
  %22 = icmp slt i32 %18, %21
  br i1 %22, label %23, label %36

23:                                               ; preds = %17
  %24 = load ptr, ptr %3, align 8, !tbaa !48
  %25 = load i32, ptr %4, align 4, !tbaa !11
  %26 = load ptr, ptr %5, align 8, !tbaa !57
  %27 = getelementptr inbounds nuw %struct._zend_basic_block, ptr %26, i32 0, i32 0
  %28 = load ptr, ptr %27, align 8, !tbaa !105
  %29 = load i32, ptr %8, align 4, !tbaa !11
  %30 = sext i32 %29 to i64
  %31 = getelementptr inbounds i32, ptr %28, i64 %30
  %32 = load i32, ptr %31, align 4, !tbaa !11
  call void @zend_ssa_remove_predecessor(ptr noundef %24, i32 noundef %25, i32 noundef %32)
  br label %33

33:                                               ; preds = %23
  %34 = load i32, ptr %8, align 4, !tbaa !11
  %35 = add nsw i32 %34, 1
  store i32 %35, ptr %8, align 4, !tbaa !11
  br label %17

36:                                               ; preds = %17
  %37 = load ptr, ptr %3, align 8, !tbaa !48
  %38 = getelementptr inbounds nuw %struct._zend_ssa, ptr %37, i32 0, i32 0
  %39 = getelementptr inbounds nuw %struct._zend_cfg, ptr %38, i32 0, i32 3
  %40 = load ptr, ptr %39, align 8, !tbaa !78
  %41 = load ptr, ptr %5, align 8, !tbaa !57
  %42 = getelementptr inbounds nuw %struct._zend_basic_block, ptr %41, i32 0, i32 6
  %43 = load i32, ptr %42, align 4, !tbaa !79
  %44 = sext i32 %43 to i64
  %45 = getelementptr inbounds i32, ptr %40, i64 %44
  store ptr %45, ptr %6, align 8, !tbaa !15
  store i32 0, ptr %7, align 4, !tbaa !11
  br label %46

46:                                               ; preds = %121, %36
  %47 = load i32, ptr %7, align 4, !tbaa !11
  %48 = load ptr, ptr %5, align 8, !tbaa !57
  %49 = getelementptr inbounds nuw %struct._zend_basic_block, ptr %48, i32 0, i32 5
  %50 = load i32, ptr %49, align 8, !tbaa !77
  %51 = icmp slt i32 %47, %50
  br i1 %51, label %52, label %124

52:                                               ; preds = %46
  %53 = load ptr, ptr %6, align 8, !tbaa !15
  %54 = load i32, ptr %7, align 4, !tbaa !11
  %55 = sext i32 %54 to i64
  %56 = getelementptr inbounds i32, ptr %53, i64 %55
  %57 = load i32, ptr %56, align 4, !tbaa !11
  %58 = icmp sge i32 %57, 0
  br i1 %58, label %59, label %120

59:                                               ; preds = %52
  call void @llvm.lifetime.start.p0(i64 8, ptr %9) #13
  %60 = load ptr, ptr %3, align 8, !tbaa !48
  %61 = getelementptr inbounds nuw %struct._zend_ssa, ptr %60, i32 0, i32 0
  %62 = getelementptr inbounds nuw %struct._zend_cfg, ptr %61, i32 0, i32 2
  %63 = load ptr, ptr %62, align 8, !tbaa !50
  %64 = load ptr, ptr %6, align 8, !tbaa !15
  %65 = load i32, ptr %7, align 4, !tbaa !11
  %66 = sext i32 %65 to i64
  %67 = getelementptr inbounds i32, ptr %64, i64 %66
  %68 = load i32, ptr %67, align 4, !tbaa !11
  %69 = sext i32 %68 to i64
  %70 = getelementptr inbounds %struct._zend_basic_block, ptr %63, i64 %69
  store ptr %70, ptr %9, align 8, !tbaa !57
  store i32 0, ptr %8, align 4, !tbaa !11
  br label %71

71:                                               ; preds = %116, %59
  %72 = load i32, ptr %8, align 4, !tbaa !11
  %73 = load ptr, ptr %9, align 8, !tbaa !57
  %74 = getelementptr inbounds nuw %struct._zend_basic_block, ptr %73, i32 0, i32 4
  %75 = load i32, ptr %74, align 4, !tbaa !113
  %76 = icmp slt i32 %72, %75
  br i1 %76, label %77, label %119

77:                                               ; preds = %71
  %78 = load ptr, ptr %9, align 8, !tbaa !57
  %79 = getelementptr inbounds nuw %struct._zend_basic_block, ptr %78, i32 0, i32 0
  %80 = load ptr, ptr %79, align 8, !tbaa !105
  %81 = load i32, ptr %8, align 4, !tbaa !11
  %82 = sext i32 %81 to i64
  %83 = getelementptr inbounds i32, ptr %80, i64 %82
  %84 = load i32, ptr %83, align 4, !tbaa !11
  %85 = load i32, ptr %4, align 4, !tbaa !11
  %86 = icmp eq i32 %84, %85
  br i1 %86, label %87, label %115

87:                                               ; preds = %77
  %88 = load ptr, ptr %9, align 8, !tbaa !57
  %89 = getelementptr inbounds nuw %struct._zend_basic_block, ptr %88, i32 0, i32 0
  %90 = load ptr, ptr %89, align 8, !tbaa !105
  %91 = load i32, ptr %8, align 4, !tbaa !11
  %92 = sext i32 %91 to i64
  %93 = getelementptr inbounds i32, ptr %90, i64 %92
  %94 = load ptr, ptr %9, align 8, !tbaa !57
  %95 = getelementptr inbounds nuw %struct._zend_basic_block, ptr %94, i32 0, i32 0
  %96 = load ptr, ptr %95, align 8, !tbaa !105
  %97 = load i32, ptr %8, align 4, !tbaa !11
  %98 = sext i32 %97 to i64
  %99 = getelementptr inbounds i32, ptr %96, i64 %98
  %100 = getelementptr inbounds i32, ptr %99, i64 1
  %101 = load ptr, ptr %9, align 8, !tbaa !57
  %102 = getelementptr inbounds nuw %struct._zend_basic_block, ptr %101, i32 0, i32 4
  %103 = load i32, ptr %102, align 4, !tbaa !113
  %104 = load i32, ptr %8, align 4, !tbaa !11
  %105 = sub nsw i32 %103, %104
  %106 = sub nsw i32 %105, 1
  %107 = sext i32 %106 to i64
  %108 = mul i64 4, %107
  call void @llvm.memmove.p0.p0.i64(ptr align 4 %93, ptr align 4 %100, i64 %108, i1 false)
  %109 = load ptr, ptr %9, align 8, !tbaa !57
  %110 = getelementptr inbounds nuw %struct._zend_basic_block, ptr %109, i32 0, i32 4
  %111 = load i32, ptr %110, align 4, !tbaa !113
  %112 = add nsw i32 %111, -1
  store i32 %112, ptr %110, align 4, !tbaa !113
  %113 = load i32, ptr %8, align 4, !tbaa !11
  %114 = add nsw i32 %113, -1
  store i32 %114, ptr %8, align 4, !tbaa !11
  br label %115

115:                                              ; preds = %87, %77
  br label %116

116:                                              ; preds = %115
  %117 = load i32, ptr %8, align 4, !tbaa !11
  %118 = add nsw i32 %117, 1
  store i32 %118, ptr %8, align 4, !tbaa !11
  br label %71

119:                                              ; preds = %71
  call void @llvm.lifetime.end.p0(i64 8, ptr %9) #13
  br label %120

120:                                              ; preds = %119, %52
  br label %121

121:                                              ; preds = %120
  %122 = load i32, ptr %7, align 4, !tbaa !11
  %123 = add nsw i32 %122, 1
  store i32 %123, ptr %7, align 4, !tbaa !11
  br label %46

124:                                              ; preds = %46
  %125 = load ptr, ptr %5, align 8, !tbaa !57
  %126 = getelementptr inbounds nuw %struct._zend_basic_block, ptr %125, i32 0, i32 4
  store i32 0, ptr %126, align 4, !tbaa !113
  %127 = load ptr, ptr %5, align 8, !tbaa !57
  %128 = getelementptr inbounds nuw %struct._zend_basic_block, ptr %127, i32 0, i32 5
  store i32 0, ptr %128, align 8, !tbaa !77
  %129 = load ptr, ptr %5, align 8, !tbaa !57
  %130 = getelementptr inbounds nuw %struct._zend_basic_block, ptr %129, i32 0, i32 7
  %131 = load i32, ptr %130, align 8, !tbaa !80
  %132 = icmp sge i32 %131, 0
  br i1 %132, label %133, label %214

133:                                              ; preds = %124
  %134 = load ptr, ptr %3, align 8, !tbaa !48
  %135 = getelementptr inbounds nuw %struct._zend_ssa, ptr %134, i32 0, i32 0
  %136 = getelementptr inbounds nuw %struct._zend_cfg, ptr %135, i32 0, i32 2
  %137 = load ptr, ptr %136, align 8, !tbaa !50
  %138 = load ptr, ptr %5, align 8, !tbaa !57
  %139 = getelementptr inbounds nuw %struct._zend_basic_block, ptr %138, i32 0, i32 7
  %140 = load i32, ptr %139, align 8, !tbaa !80
  %141 = sext i32 %140 to i64
  %142 = getelementptr inbounds %struct._zend_basic_block, ptr %137, i64 %141
  %143 = getelementptr inbounds nuw %struct._zend_basic_block, ptr %142, i32 0, i32 10
  %144 = load i32, ptr %143, align 4, !tbaa !115
  store i32 %144, ptr %7, align 4, !tbaa !11
  %145 = load i32, ptr %7, align 4, !tbaa !11
  %146 = load i32, ptr %4, align 4, !tbaa !11
  %147 = icmp eq i32 %145, %146
  br i1 %147, label %148, label %162

148:                                              ; preds = %133
  %149 = load ptr, ptr %5, align 8, !tbaa !57
  %150 = getelementptr inbounds nuw %struct._zend_basic_block, ptr %149, i32 0, i32 11
  %151 = load i32, ptr %150, align 8, !tbaa !110
  %152 = load ptr, ptr %3, align 8, !tbaa !48
  %153 = getelementptr inbounds nuw %struct._zend_ssa, ptr %152, i32 0, i32 0
  %154 = getelementptr inbounds nuw %struct._zend_cfg, ptr %153, i32 0, i32 2
  %155 = load ptr, ptr %154, align 8, !tbaa !50
  %156 = load ptr, ptr %5, align 8, !tbaa !57
  %157 = getelementptr inbounds nuw %struct._zend_basic_block, ptr %156, i32 0, i32 7
  %158 = load i32, ptr %157, align 8, !tbaa !80
  %159 = sext i32 %158 to i64
  %160 = getelementptr inbounds %struct._zend_basic_block, ptr %155, i64 %159
  %161 = getelementptr inbounds nuw %struct._zend_basic_block, ptr %160, i32 0, i32 10
  store i32 %151, ptr %161, align 4, !tbaa !115
  br label %213

162:                                              ; preds = %133
  %163 = load i32, ptr %7, align 4, !tbaa !11
  %164 = icmp sge i32 %163, 0
  br i1 %164, label %165, label %212

165:                                              ; preds = %162
  br label %166

166:                                              ; preds = %201, %165
  %167 = load ptr, ptr %3, align 8, !tbaa !48
  %168 = getelementptr inbounds nuw %struct._zend_ssa, ptr %167, i32 0, i32 0
  %169 = getelementptr inbounds nuw %struct._zend_cfg, ptr %168, i32 0, i32 2
  %170 = load ptr, ptr %169, align 8, !tbaa !50
  %171 = load i32, ptr %7, align 4, !tbaa !11
  %172 = sext i32 %171 to i64
  %173 = getelementptr inbounds %struct._zend_basic_block, ptr %170, i64 %172
  %174 = getelementptr inbounds nuw %struct._zend_basic_block, ptr %173, i32 0, i32 11
  %175 = load i32, ptr %174, align 8, !tbaa !110
  %176 = icmp sge i32 %175, 0
  br i1 %176, label %177, label %211

177:                                              ; preds = %166
  %178 = load ptr, ptr %3, align 8, !tbaa !48
  %179 = getelementptr inbounds nuw %struct._zend_ssa, ptr %178, i32 0, i32 0
  %180 = getelementptr inbounds nuw %struct._zend_cfg, ptr %179, i32 0, i32 2
  %181 = load ptr, ptr %180, align 8, !tbaa !50
  %182 = load i32, ptr %7, align 4, !tbaa !11
  %183 = sext i32 %182 to i64
  %184 = getelementptr inbounds %struct._zend_basic_block, ptr %181, i64 %183
  %185 = getelementptr inbounds nuw %struct._zend_basic_block, ptr %184, i32 0, i32 11
  %186 = load i32, ptr %185, align 8, !tbaa !110
  %187 = load i32, ptr %4, align 4, !tbaa !11
  %188 = icmp eq i32 %186, %187
  br i1 %188, label %189, label %201

189:                                              ; preds = %177
  %190 = load ptr, ptr %5, align 8, !tbaa !57
  %191 = getelementptr inbounds nuw %struct._zend_basic_block, ptr %190, i32 0, i32 11
  %192 = load i32, ptr %191, align 8, !tbaa !110
  %193 = load ptr, ptr %3, align 8, !tbaa !48
  %194 = getelementptr inbounds nuw %struct._zend_ssa, ptr %193, i32 0, i32 0
  %195 = getelementptr inbounds nuw %struct._zend_cfg, ptr %194, i32 0, i32 2
  %196 = load ptr, ptr %195, align 8, !tbaa !50
  %197 = load i32, ptr %7, align 4, !tbaa !11
  %198 = sext i32 %197 to i64
  %199 = getelementptr inbounds %struct._zend_basic_block, ptr %196, i64 %198
  %200 = getelementptr inbounds nuw %struct._zend_basic_block, ptr %199, i32 0, i32 11
  store i32 %192, ptr %200, align 8, !tbaa !110
  br label %211

201:                                              ; preds = %177
  %202 = load ptr, ptr %3, align 8, !tbaa !48
  %203 = getelementptr inbounds nuw %struct._zend_ssa, ptr %202, i32 0, i32 0
  %204 = getelementptr inbounds nuw %struct._zend_cfg, ptr %203, i32 0, i32 2
  %205 = load ptr, ptr %204, align 8, !tbaa !50
  %206 = load i32, ptr %7, align 4, !tbaa !11
  %207 = sext i32 %206 to i64
  %208 = getelementptr inbounds %struct._zend_basic_block, ptr %205, i64 %207
  %209 = getelementptr inbounds nuw %struct._zend_basic_block, ptr %208, i32 0, i32 11
  %210 = load i32, ptr %209, align 8, !tbaa !110
  store i32 %210, ptr %7, align 4, !tbaa !11
  br label %166

211:                                              ; preds = %189, %166
  br label %212

212:                                              ; preds = %211, %162
  br label %213

213:                                              ; preds = %212, %148
  br label %214

214:                                              ; preds = %213, %124
  %215 = load ptr, ptr %5, align 8, !tbaa !57
  %216 = getelementptr inbounds nuw %struct._zend_basic_block, ptr %215, i32 0, i32 7
  store i32 -1, ptr %216, align 8, !tbaa !80
  %217 = load ptr, ptr %5, align 8, !tbaa !57
  %218 = getelementptr inbounds nuw %struct._zend_basic_block, ptr %217, i32 0, i32 9
  store i32 -1, ptr %218, align 8, !tbaa !147
  %219 = load ptr, ptr %5, align 8, !tbaa !57
  %220 = getelementptr inbounds nuw %struct._zend_basic_block, ptr %219, i32 0, i32 10
  store i32 -1, ptr %220, align 4, !tbaa !115
  %221 = load ptr, ptr %5, align 8, !tbaa !57
  %222 = getelementptr inbounds nuw %struct._zend_basic_block, ptr %221, i32 0, i32 11
  store i32 -1, ptr %222, align 8, !tbaa !110
  call void @llvm.lifetime.end.p0(i64 4, ptr %8) #13
  call void @llvm.lifetime.end.p0(i64 4, ptr %7) #13
  call void @llvm.lifetime.end.p0(i64 8, ptr %6) #13
  call void @llvm.lifetime.end.p0(i64 8, ptr %5) #13
  ret void
}