; Function Attrs: nofree nosync nounwind memory(readwrite, inaccessiblemem: write) uwtable
define hidden void @zend_ssa_remove_block_from_cfg(ptr noundef readonly captures(none) %0, i32 noundef %1) local_unnamed_addr #9 {
  %3 = getelementptr inbounds nuw i8, ptr %0, i64 8
  %4 = load ptr, ptr %3, align 8, !tbaa !38
  %5 = sext i32 %1 to i64
  %6 = getelementptr inbounds %struct._zend_basic_block, ptr %4, i64 %5
  %7 = getelementptr inbounds nuw i8, ptr %6, i64 20
  %8 = load i32, ptr %7, align 4, !tbaa !111
  %9 = icmp sgt i32 %8, 0
  br i1 %9, label %.lr.ph, label %._crit_edge

.lr.ph:                                           ; preds = %2, %.lr.ph
  %indvars.iv = phi i64 [ %indvars.iv.next, %.lr.ph ], [ 0, %2 ]
  %10 = load ptr, ptr %6, align 8, !tbaa !74
  %11 = getelementptr inbounds nuw i32, ptr %10, i64 %indvars.iv
  %12 = load i32, ptr %11, align 4, !tbaa !11
  tail call void @zend_ssa_remove_predecessor(ptr noundef %0, i32 noundef %1, i32 noundef %12)
  %indvars.iv.next = add nuw nsw i64 %indvars.iv, 1
  %13 = load i32, ptr %7, align 4, !tbaa !111
  %14 = sext i32 %13 to i64
  %15 = icmp slt i64 %indvars.iv.next, %14
  br i1 %15, label %.lr.ph, label %._crit_edge

._crit_edge:                                      ; preds = %.lr.ph, %2
  %16 = getelementptr inbounds nuw i8, ptr %0, i64 16
  %17 = load ptr, ptr %16, align 8, !tbaa !96
  %18 = getelementptr inbounds nuw i8, ptr %6, i64 28
  %19 = load i32, ptr %18, align 4, !tbaa !97
  %20 = sext i32 %19 to i64
  %21 = getelementptr inbounds i32, ptr %17, i64 %20
  %22 = getelementptr inbounds nuw i8, ptr %6, i64 24
  %23 = load i32, ptr %22, align 8, !tbaa !94
  %24 = icmp sgt i32 %23, 0
  br i1 %24, label %.lr.ph74, label %._crit_edge75

.lr.ph74:                                         ; preds = %._crit_edge, %.loopexit65
  %25 = phi i32 [ %55, %.loopexit65 ], [ %23, %._crit_edge ]
  %indvars.iv78 = phi i64 [ %indvars.iv.next79, %.loopexit65 ], [ 0, %._crit_edge ]
  %26 = getelementptr inbounds nuw i32, ptr %21, i64 %indvars.iv78
  %27 = load i32, ptr %26, align 4, !tbaa !11
  %28 = icmp sgt i32 %27, -1
  br i1 %28, label %29, label %.loopexit65

29:                                               ; preds = %.lr.ph74
  %30 = load ptr, ptr %3, align 8, !tbaa !38
  %31 = zext nneg i32 %27 to i64
  %32 = getelementptr inbounds nuw %struct._zend_basic_block, ptr %30, i64 %31
  %33 = getelementptr inbounds nuw i8, ptr %32, i64 20
  %34 = load i32, ptr %33, align 4, !tbaa !111
  %35 = icmp sgt i32 %34, 0
  br i1 %35, label %.lr.ph71, label %.loopexit65

.lr.ph71:                                         ; preds = %29, %51
  %36 = phi i32 [ %52, %51 ], [ %34, %29 ]
  %.15869 = phi i32 [ %53, %51 ], [ 0, %29 ]
  %37 = load ptr, ptr %32, align 8, !tbaa !74
  %38 = sext i32 %.15869 to i64
  %39 = getelementptr inbounds i32, ptr %37, i64 %38
  %40 = load i32, ptr %39, align 4, !tbaa !11
  %41 = icmp eq i32 %40, %1
  br i1 %41, label %42, label %51

42:                                               ; preds = %.lr.ph71
  %43 = getelementptr inbounds nuw i8, ptr %39, i64 4
  %44 = xor i32 %.15869, -1
  %45 = add i32 %36, %44
  %46 = sext i32 %45 to i64
  %47 = shl nsw i64 %46, 2
  tail call void @llvm.memmove.p0.p0.i64(ptr nonnull align 4 %39, ptr nonnull align 4 %43, i64 %47, i1 false)
  %48 = load i32, ptr %33, align 4, !tbaa !111
  %49 = add nsw i32 %48, -1
  store i32 %49, ptr %33, align 4, !tbaa !111
  %50 = add nsw i32 %.15869, -1
  br label %51

51:                                               ; preds = %.lr.ph71, %42
  %52 = phi i32 [ %49, %42 ], [ %36, %.lr.ph71 ]
  %.2 = phi i32 [ %50, %42 ], [ %.15869, %.lr.ph71 ]
  %53 = add nsw i32 %.2, 1
  %54 = icmp slt i32 %53, %52
  br i1 %54, label %.lr.ph71, label %.loopexit65.loopexit

.loopexit65.loopexit:                             ; preds = %51
  %.pre = load i32, ptr %22, align 8, !tbaa !94
  br label %.loopexit65

.loopexit65:                                      ; preds = %.loopexit65.loopexit, %29, %.lr.ph74
  %55 = phi i32 [ %.pre, %.loopexit65.loopexit ], [ %25, %29 ], [ %25, %.lr.ph74 ]
  %indvars.iv.next79 = add nuw nsw i64 %indvars.iv78, 1
  %56 = sext i32 %55 to i64
  %57 = icmp slt i64 %indvars.iv.next79, %56
  br i1 %57, label %.lr.ph74, label %._crit_edge75

._crit_edge75:                                    ; preds = %.loopexit65, %._crit_edge
  store i32 0, ptr %7, align 4, !tbaa !111
  store i32 0, ptr %22, align 8, !tbaa !94
  %58 = getelementptr inbounds nuw i8, ptr %6, i64 32
  %59 = load i32, ptr %58, align 8, !tbaa !95
  %60 = icmp sgt i32 %59, -1
  br i1 %60, label %61, label %.loopexit

61:                                               ; preds = %._crit_edge75
  %62 = load ptr, ptr %3, align 8, !tbaa !38
  %63 = zext nneg i32 %59 to i64
  %64 = getelementptr inbounds nuw %struct._zend_basic_block, ptr %62, i64 %63, i32 10
  %65 = load i32, ptr %64, align 4, !tbaa !138
  %66 = icmp eq i32 %65, %1
  br i1 %66, label %67, label %70

67:                                               ; preds = %61
  %68 = getelementptr inbounds nuw i8, ptr %6, i64 48
  %69 = load i32, ptr %68, align 8, !tbaa !108
  store i32 %69, ptr %64, align 4, !tbaa !138
  br label %.loopexit

70:                                               ; preds = %61
  %71 = icmp sgt i32 %65, -1
  br i1 %71, label %.preheader, label %.loopexit

.preheader:                                       ; preds = %70, %76
  %.1 = phi i32 [ %74, %76 ], [ %65, %70 ]
  %72 = zext nneg i32 %.1 to i64
  %73 = getelementptr inbounds nuw %struct._zend_basic_block, ptr %62, i64 %72, i32 11
  %74 = load i32, ptr %73, align 8, !tbaa !108
  %75 = icmp sgt i32 %74, -1
  br i1 %75, label %76, label %.loopexit

76:                                               ; preds = %.preheader
  %77 = icmp eq i32 %74, %1
  br i1 %77, label %78, label %.preheader

78:                                               ; preds = %76
  %79 = getelementptr inbounds nuw i8, ptr %6, i64 48
  %80 = load i32, ptr %79, align 8, !tbaa !108
  store i32 %80, ptr %73, align 8, !tbaa !108
  br label %.loopexit

.loopexit:                                        ; preds = %.preheader, %67, %78, %70, %._crit_edge75
  store i32 -1, ptr %58, align 8, !tbaa !95
  %81 = getelementptr inbounds nuw i8, ptr %6, i64 40
  store i32 -1, ptr %81, align 8, !tbaa !139
  %82 = getelementptr inbounds nuw i8, ptr %6, i64 44
  store i32 -1, ptr %82, align 4, !tbaa !138
  %83 = getelementptr inbounds nuw i8, ptr %6, i64 48
  store i32 -1, ptr %83, align 8, !tbaa !108
  ret void
}